target datalayout = "e-m:e-p270:32:32-p271:32:32-p272:64:64-i64:64-i128:128-f80:128-n8:16:32:64-S128"
target triple = "x86_64-pc-linux-gnu"

%"class.std::filesystem::__cxx11::path" = type { %"class.std::__cxx11::basic_string", %"struct.std::filesystem::__cxx11::path::_List" }
%"class.std::__cxx11::basic_string" = type { %"struct.std::__cxx11::basic_string<char>::_Alloc_hider", i64, %union.anon }
%"struct.std::__cxx11::basic_string<char>::_Alloc_hider" = type { ptr }
%union.anon = type { i64, [8 x i8] }
%"struct.std::filesystem::__cxx11::path::_List" = type { %"class.std::unique_ptr.2" }
%"class.std::unique_ptr.2" = type { %"struct.std::__uniq_ptr_data.3" }
%"struct.std::__uniq_ptr_data.3" = type { %"class.std::__uniq_ptr_impl.4" }
%"class.std::__uniq_ptr_impl.4" = type { %"class.std::tuple.5" }
%"class.std::tuple.5" = type { %"struct.std::_Tuple_impl.6" }
%"struct.std::_Tuple_impl.6" = type { %"struct.std::_Head_base.9" }
%"struct.std::_Head_base.9" = type { ptr }

@.str.2 = private unnamed_addr constant [123 x i8] c"generated/home/dtcxzyw/WorkSpace/Projects/compilers/llvm-opt-benchmark/bench/gromacs/gromacs/src/gromacs/utility/futil.cpp\00", align 1
@.str.25 = private unnamed_addr constant [55 x i8] c"Buf passed to gmx_tmpnam must be at least 7 bytes long\00", align 1
@.str.26 = private unnamed_addr constant [37 x i8] c"Error creating temporary file %s: %s\00", align 1

; Function Attrs: mustprogress uwtable
define internal noundef i32 @_ZL21makeTemporaryFilenamePc(ptr noundef %0) #6 personality ptr @__gxx_personality_v0 {
  %2 = alloca ptr, align 8
  %3 = alloca i32, align 4
  %4 = alloca %"class.std::filesystem::__cxx11::path", align 8
  %5 = alloca ptr, align 8
  %6 = alloca i32, align 4
  %7 = alloca i32, align 4
  %8 = alloca i32, align 4
  %9 = alloca i32, align 4
  %10 = alloca %"class.std::filesystem::__cxx11::path", align 8
  store ptr %0, ptr %2, align 8, !tbaa !13
  call void @llvm.lifetime.start.p0(i64 4, ptr %3) #3
  store i32 0, ptr %3, align 4, !tbaa !11
  %11 = load ptr, ptr %2, align 8, !tbaa !13
  %12 = call i64 @strlen(ptr noundef %11) #25
  %13 = trunc i64 %12 to i32
  store i32 %13, ptr %3, align 4, !tbaa !11
  %14 = icmp slt i32 %13, 7
  br i1 %14, label %15, label %21

15:                                               ; preds = %1
  call void @llvm.lifetime.start.p0(i64 40, ptr %4) #3
  call void @_ZNSt10filesystem7__cxx114pathC2IA123_cS1_EERKT_NS1_6formatE(ptr noundef nonnull align 8 dereferenceable(40) %4, ptr noundef nonnull align 1 dereferenceable(123) @.str.2, i8 noundef zeroext 2)
  invoke void (i32, ptr, i32, ptr, ...) @_Z9gmx_fataliRKNSt10filesystem7__cxx114pathEiPKcz(i32 noundef 0, ptr noundef nonnull align 8 dereferenceable(40) %4, i32 noundef 507, ptr noundef @.str.25) #22
          to label %16 unwind label %17

16:                                               ; preds = %15
  unreachable

17:                                               ; preds = %15
  %18 = landingpad { ptr, i32 }
          cleanup
  %19 = extractvalue { ptr, i32 } %18, 0
  store ptr %19, ptr %5, align 8
  %20 = extractvalue { ptr, i32 } %18, 1
  store i32 %20, ptr %6, align 4
  call void @_ZNSt10filesystem7__cxx114pathD2Ev(ptr noundef nonnull align 8 dereferenceable(40) %4) #3
  call void @llvm.lifetime.end.p0(i64 40, ptr %4) #3
  br label %62

21:                                               ; preds = %1
  call void @llvm.lifetime.start.p0(i64 4, ptr %7) #3
  %22 = load i32, ptr %3, align 4, !tbaa !11
  %23 = sub nsw i32 %22, 6
  store i32 %23, ptr %7, align 4, !tbaa !11
  br label %24

24:                                               ; preds = %34, %21
  %25 = load i32, ptr %7, align 4, !tbaa !11
  %26 = load i32, ptr %3, align 4, !tbaa !11
  %27 = icmp slt i32 %25, %26
  br i1 %27, label %29, label %28

28:                                               ; preds = %24
  call void @llvm.lifetime.end.p0(i64 4, ptr %7) #3
  br label %37

29:                                               ; preds = %24
  %30 = load ptr, ptr %2, align 8, !tbaa !13
  %31 = load i32, ptr %7, align 4, !tbaa !11
  %32 = sext i32 %31 to i64
  %33 = getelementptr inbounds i8, ptr %30, i64 %32
  store i8 88, ptr %33, align 1, !tbaa !58
  br label %34

34:                                               ; preds = %29
  %35 = load i32, ptr %7, align 4, !tbaa !11
  %36 = add nsw i32 %35, 1
  store i32 %36, ptr %7, align 4, !tbaa !11
  br label %24, !llvm.loop !160

37:                                               ; preds = %28
  call void @llvm.lifetime.start.p0(i64 4, ptr %8) #3
  %38 = load ptr, ptr %2, align 8, !tbaa !13
  %39 = call i32 @mkstemp(ptr noundef %38)
  store i32 %39, ptr %8, align 4, !tbaa !11
  call void @llvm.lifetime.start.p0(i64 4, ptr %9) #3
  %40 = call i32 @umask(i32 noundef 0) #3
  store i32 %40, ptr %9, align 4, !tbaa !11
  %41 = load i32, ptr %9, align 4, !tbaa !11
  %42 = call i32 @umask(i32 noundef %41) #3
  %43 = load i32, ptr %8, align 4, !tbaa !11
  %44 = load i32, ptr %9, align 4, !tbaa !11
  %45 = xor i32 %44, -1
  %46 = and i32 438, %45
  %47 = call i32 @fchmod(i32 noundef %43, i32 noundef %46) #3
  %48 = load i32, ptr %8, align 4, !tbaa !11
  %49 = icmp slt i32 %48, 0
  br i1 %49, label %50, label %60

50:                                               ; preds = %37
  call void @llvm.lifetime.start.p0(i64 40, ptr %10) #3
  call void @_ZNSt10filesystem7__cxx114pathC2IA123_cS1_EERKT_NS1_6formatE(ptr noundef nonnull align 8 dereferenceable(40) %10, ptr noundef nonnull align 1 dereferenceable(123) @.str.2, i8 noundef zeroext 2)
  %51 = load ptr, ptr %2, align 8, !tbaa !13
  %52 = call ptr @__errno_location() #23
  %53 = load i32, ptr %52, align 4, !tbaa !11
  %54 = call ptr @strerror(i32 noundef %53) #3
  invoke void (i32, ptr, i32, ptr, ...) @_Z9gmx_fataliRKNSt10filesystem7__cxx114pathEiPKcz(i32 noundef 0, ptr noundef nonnull align 8 dereferenceable(40) %10, i32 noundef 534, ptr noundef @.str.26, ptr noundef %51, ptr noundef %54) #22
          to label %55 unwind label %56

55:                                               ; preds = %50
  unreachable

56:                                               ; preds = %50
  %57 = landingpad { ptr, i32 }
          cleanup
  %58 = extractvalue { ptr, i32 } %57, 0
  store ptr %58, ptr %5, align 8
  %59 = extractvalue { ptr, i32 } %57, 1
  store i32 %59, ptr %6, align 4
  call void @_ZNSt10filesystem7__cxx114pathD2Ev(ptr noundef nonnull align 8 dereferenceable(40) %10) #3
  call void @llvm.lifetime.end.p0(i64 40, ptr %10) #3
  call void @llvm.lifetime.end.p0(i64 4, ptr %9) #3
  call void @llvm.lifetime.end.p0(i64 4, ptr %8) #3
  br label %62

60:                                               ; preds = %37
  %61 = load i32, ptr %8, align 4, !tbaa !11
  call void @llvm.lifetime.end.p0(i64 4, ptr %9) #3
  call void @llvm.lifetime.end.p0(i64 4, ptr %8) #3
  call void @llvm.lifetime.end.p0(i64 4, ptr %3) #3
  ret i32 %61

62:                                               ; preds = %56, %17
  call void @llvm.lifetime.end.p0(i64 4, ptr %3) #3
  br label %63

63:                                               ; preds = %62
  %64 = load ptr, ptr %5, align 8
  %65 = load i32, ptr %6, align 4
  %66 = insertvalue { ptr, i32 } poison, ptr %64, 0
  %67 = insertvalue { ptr, i32 } %66, i32 %65, 1
  resume { ptr, i32 } %67
}