; Function Attrs: mustprogress uwtable
define internal fastcc noundef range(i32 0, -2147483648) i32 @_ZL21makeTemporaryFilenamePc(ptr noundef %0) unnamed_addr #9 personality ptr @__gxx_personality_v0 {
  %2 = alloca %"class.std::filesystem::__cxx11::path", align 8
  %3 = alloca %"class.std::filesystem::__cxx11::path", align 8
  %4 = tail call i64 @strlen(ptr noundef nonnull dereferenceable(1) %0) #37
  %5 = trunc i64 %4 to i32
  %6 = icmp slt i32 %5, 7
  br i1 %6, label %7, label %11

7:                                                ; preds = %1
  call void @llvm.lifetime.start.p0(i64 40, ptr nonnull %2) #30
  call void @_ZNSt10filesystem7__cxx114pathC2IA123_cS1_EERKT_NS1_6formatE(ptr noundef nonnull align 8 dereferenceable(40) %2, ptr noundef nonnull align 1 dereferenceable(123) @.str.2, i8 noundef zeroext 2)
  invoke void (i32, ptr, i32, ptr, ...) @_Z9gmx_fataliRKNSt10filesystem7__cxx114pathEiPKcz(i32 noundef 0, ptr noundef nonnull align 8 dereferenceable(40) %2, i32 noundef 507, ptr noundef nonnull @.str.25) #31
          to label %8 unwind label %9

8:                                                ; preds = %7
  unreachable

9:                                                ; preds = %7
  %10 = landingpad { ptr, i32 }
          cleanup
  call void @_ZNSt10filesystem7__cxx114pathD2Ev(ptr noundef nonnull align 8 dereferenceable(40) %2) #30
  call void @llvm.lifetime.end.p0(i64 40, ptr nonnull %2) #30
  br label %29

11:                                               ; preds = %1
  %12 = shl i64 %4, 32
  %sext = add nsw i64 %12, -25769803776
  %13 = ashr exact i64 %sext, 32
  %scevgep = getelementptr i8, ptr %0, i64 %13
  tail call void @llvm.memset.p0.i64(ptr noundef nonnull align 1 dereferenceable(6) %scevgep, i8 88, i64 6, i1 false), !tbaa !34
  %14 = tail call i32 @mkstemp(ptr noundef nonnull %0)
  %15 = tail call i32 @umask(i32 noundef 0) #30
  %16 = tail call i32 @umask(i32 noundef %15) #30
  %17 = and i32 %15, 438
  %18 = xor i32 %17, 438
  %19 = tail call i32 @fchmod(i32 noundef %14, i32 noundef %18) #30
  %20 = icmp slt i32 %14, 0
  br i1 %20, label %21, label %28

21:                                               ; preds = %11
  call void @llvm.lifetime.start.p0(i64 40, ptr nonnull %3) #30
  call void @_ZNSt10filesystem7__cxx114pathC2IA123_cS1_EERKT_NS1_6formatE(ptr noundef nonnull align 8 dereferenceable(40) %3, ptr noundef nonnull align 1 dereferenceable(123) @.str.2, i8 noundef zeroext 2)
  %22 = tail call ptr @__errno_location() #34
  %23 = load i32, ptr %22, align 4, !tbaa !9
  %24 = call ptr @strerror(i32 noundef %23) #30
  invoke void (i32, ptr, i32, ptr, ...) @_Z9gmx_fataliRKNSt10filesystem7__cxx114pathEiPKcz(i32 noundef 0, ptr noundef nonnull align 8 dereferenceable(40) %3, i32 noundef 534, ptr noundef nonnull @.str.26, ptr noundef nonnull %0, ptr noundef %24) #31
          to label %25 unwind label %26

25:                                               ; preds = %21
  unreachable

26:                                               ; preds = %21
  %27 = landingpad { ptr, i32 }
          cleanup
  call void @_ZNSt10filesystem7__cxx114pathD2Ev(ptr noundef nonnull align 8 dereferenceable(40) %3) #30
  call void @llvm.lifetime.end.p0(i64 40, ptr nonnull %3) #30
  br label %29

28:                                               ; preds = %11
  ret i32 %14

29:                                               ; preds = %26, %9
  %.pn = phi { ptr, i32 } [ %10, %9 ], [ %27, %26 ]
  resume { ptr, i32 } %.pn
}